(iice.variables
Cache
p1
(dp2
S'customLibraryList'
p3
(lp4
sS'depend'
p5
(dp6
S'RELEASE'
p7
(iice.variables
Depend
p8
(dp9
S'usesLibrariesList'
p10
(lp11
sS'libraryPaths'
p12
(lp13
S'build/'
p14
aS'/Applications/Xcode.app/Contents/Developer/Platforms/MacOSX.platform/Developer/SDKs/MacOSX10.7.sdk/usr/X11/lib/'
p15
aS'/usr/local/lib/'
p16
aS'/usr/lib/'
p17
aS'/Volumes/Volatile/G3D/g3dsvn/G3D9/build/lib/'
p18
asS'includePaths'
p19
(lp20
S'/Applications/Xcode.app/Contents/Developer/Platforms/MacOSX.platform/Developer/SDKs/MacOSX10.7.sdk/usr/X11/include/'
p21
aS'/usr/local/include/'
p22
aS'/usr/include/'
p23
aS'/Volumes/Volatile/G3D/g3dsvn/G3D9/build/include/'
p24
asS'dependencies'
p25
(dp26
S'/Volumes/McGuire/Desktop/indentjs-source/code/cmdline.cpp'
p27
(F1335793570.813843
(lp28
S'/Volumes/McGuire/Desktop/indentjs-source/code/cmdline.cpp'
p29
aS'/usr/include/stdlib.h'
p30
aS'/usr/include/Availability.h'
p31
aS'/usr/include/AvailabilityInternal.h'
p32
aS'/usr/include/_types.h'
p33
aS'/usr/include/sys/_types.h'
p34
aS'/usr/include/sys/cdefs.h'
p35
aS'/usr/include/sys/_symbol_aliasing.h'
p36
aS'/usr/include/sys/_posix_availability.h'
p37
aS'/usr/include/machine/_types.h'
p38
aS'/usr/include/i386/_types.h'
p39
aS'/usr/include/sys/wait.h'
p40
aS'/usr/include/sys/signal.h'
p41
aS'/usr/include/sys/appleapiopts.h'
p42
aS'/usr/include/machine/signal.h'
p43
aS'/usr/include/i386/signal.h'
p44
aS'/usr/include/i386/_structs.h'
p45
aS'/usr/include/sys/_structs.h'
p46
aS'/usr/include/machine/_structs.h'
p47
aS'/usr/include/mach/i386/_structs.h'
p48
aS'/usr/include/sys/resource.h'
p49
aS'/usr/include/machine/endian.h'
p50
aS'/usr/include/i386/endian.h'
p51
aS'/usr/include/sys/_endian.h'
p52
aS'/usr/include/libkern/_OSByteOrder.h'
p53
aS'/usr/include/libkern/i386/_OSByteOrder.h'
p54
aS'/usr/include/alloca.h'
p55
aS'/usr/include/machine/types.h'
p56
aS'/usr/include/i386/types.h'
p57
aS'/usr/include/i386/_types.h'
p58
aS'/usr/include/ctype.h'
p59
aS'/usr/include/runetype.h'
p60
aS'/usr/include/string.h'
p61
aS'/usr/include/strings.h'
p62
aS'/Volumes/McGuire/Desktop/indentjs-source/code/bcpp.h'
p63
aS'/usr/include/sys/types.h'
p64
aS'/Volumes/McGuire/Desktop/indentjs-source/code/config.h'
p65
aS'/usr/include/stdio.h'
p66
aS'/Volumes/McGuire/Desktop/indentjs-source/code/anyobj.h'
p67
aS'/Volumes/McGuire/Desktop/indentjs-source/code/baseq.h'
p68
aS'/Volumes/McGuire/Desktop/indentjs-source/code/stacklis.h'
p69
aS'/Volumes/McGuire/Desktop/indentjs-source/code/cmdline.h'
p70
atp71
sS'/Volumes/McGuire/Desktop/indentjs-source/code/hanging.cpp'
p72
(F1335793570.914935
(lp73
S'/Volumes/McGuire/Desktop/indentjs-source/code/hanging.cpp'
p74
aS'/usr/include/stdlib.h'
p75
aS'/usr/include/Availability.h'
p76
aS'/usr/include/AvailabilityInternal.h'
p77
aS'/usr/include/_types.h'
p78
aS'/usr/include/sys/_types.h'
p79
aS'/usr/include/sys/cdefs.h'
p80
aS'/usr/include/sys/_symbol_aliasing.h'
p81
aS'/usr/include/sys/_posix_availability.h'
p82
aS'/usr/include/machine/_types.h'
p83
aS'/usr/include/i386/_types.h'
p84
aS'/usr/include/sys/wait.h'
p85
aS'/usr/include/sys/signal.h'
p86
aS'/usr/include/sys/appleapiopts.h'
p87
aS'/usr/include/machine/signal.h'
p88
aS'/usr/include/i386/signal.h'
p89
aS'/usr/include/i386/_structs.h'
p90
aS'/usr/include/sys/_structs.h'
p91
aS'/usr/include/machine/_structs.h'
p92
aS'/usr/include/mach/i386/_structs.h'
p93
aS'/usr/include/sys/resource.h'
p94
aS'/usr/include/machine/endian.h'
p95
aS'/usr/include/i386/endian.h'
p96
aS'/usr/include/sys/_endian.h'
p97
aS'/usr/include/libkern/_OSByteOrder.h'
p98
aS'/usr/include/libkern/i386/_OSByteOrder.h'
p99
aS'/usr/include/alloca.h'
p100
aS'/usr/include/machine/types.h'
p101
aS'/usr/include/i386/types.h'
p102
aS'/usr/include/i386/_types.h'
p103
aS'/usr/include/string.h'
p104
aS'/usr/include/strings.h'
p105
aS'/usr/include/ctype.h'
p106
aS'/usr/include/runetype.h'
p107
aS'/Volumes/McGuire/Desktop/indentjs-source/code/bcpp.h'
p108
aS'/usr/include/sys/types.h'
p109
aS'/Volumes/McGuire/Desktop/indentjs-source/code/config.h'
p110
aS'/usr/include/stdio.h'
p111
aS'/Volumes/McGuire/Desktop/indentjs-source/code/anyobj.h'
p112
aS'/Volumes/McGuire/Desktop/indentjs-source/code/baseq.h'
p113
aS'/Volumes/McGuire/Desktop/indentjs-source/code/stacklis.h'
p114
atp115
sS'/Volumes/McGuire/Desktop/indentjs-source/code/stacklis.cpp'
p116
(F1335793570.947607
(lp117
S'/Volumes/McGuire/Desktop/indentjs-source/code/stacklis.cpp'
p118
aS'/Volumes/McGuire/Desktop/indentjs-source/code/stacklis.h'
p119
aS'/usr/include/stdio.h'
p120
aS'/usr/include/sys/cdefs.h'
p121
aS'/usr/include/sys/_symbol_aliasing.h'
p122
aS'/usr/include/sys/_posix_availability.h'
p123
aS'/usr/include/Availability.h'
p124
aS'/usr/include/AvailabilityInternal.h'
p125
aS'/usr/include/_types.h'
p126
aS'/usr/include/sys/_types.h'
p127
aS'/usr/include/machine/_types.h'
p128
aS'/usr/include/i386/_types.h'
p129
aS'/Volumes/McGuire/Desktop/indentjs-source/code/anyobj.h'
p130
atp131
sS'/Volumes/McGuire/Desktop/indentjs-source/code/config.cpp'
p132
(F1335793570.832585
(lp133
S'/Volumes/McGuire/Desktop/indentjs-source/code/config.cpp'
p134
aS'/usr/include/stdlib.h'
p135
aS'/usr/include/Availability.h'
p136
aS'/usr/include/AvailabilityInternal.h'
p137
aS'/usr/include/_types.h'
p138
aS'/usr/include/sys/_types.h'
p139
aS'/usr/include/sys/cdefs.h'
p140
aS'/usr/include/sys/_symbol_aliasing.h'
p141
aS'/usr/include/sys/_posix_availability.h'
p142
aS'/usr/include/machine/_types.h'
p143
aS'/usr/include/i386/_types.h'
p144
aS'/usr/include/sys/wait.h'
p145
aS'/usr/include/sys/signal.h'
p146
aS'/usr/include/sys/appleapiopts.h'
p147
aS'/usr/include/machine/signal.h'
p148
aS'/usr/include/i386/signal.h'
p149
aS'/usr/include/i386/_structs.h'
p150
aS'/usr/include/sys/_structs.h'
p151
aS'/usr/include/machine/_structs.h'
p152
aS'/usr/include/mach/i386/_structs.h'
p153
aS'/usr/include/sys/resource.h'
p154
aS'/usr/include/machine/endian.h'
p155
aS'/usr/include/i386/endian.h'
p156
aS'/usr/include/sys/_endian.h'
p157
aS'/usr/include/libkern/_OSByteOrder.h'
p158
aS'/usr/include/libkern/i386/_OSByteOrder.h'
p159
aS'/usr/include/alloca.h'
p160
aS'/usr/include/machine/types.h'
p161
aS'/usr/include/i386/types.h'
p162
aS'/usr/include/i386/_types.h'
p163
aS'/usr/include/string.h'
p164
aS'/usr/include/strings.h'
p165
aS'/usr/include/stdio.h'
p166
aS'/usr/include/ctype.h'
p167
aS'/usr/include/runetype.h'
p168
aS'/Volumes/McGuire/Desktop/indentjs-source/code/bcpp.h'
p169
aS'/usr/include/sys/types.h'
p170
aS'/Volumes/McGuire/Desktop/indentjs-source/code/config.h'
p171
aS'/Volumes/McGuire/Desktop/indentjs-source/code/anyobj.h'
p172
aS'/Volumes/McGuire/Desktop/indentjs-source/code/baseq.h'
p173
aS'/Volumes/McGuire/Desktop/indentjs-source/code/stacklis.h'
p174
aS'/Volumes/McGuire/Desktop/indentjs-source/code/cmdline.h'
p175
atp176
sS'/Volumes/McGuire/Desktop/indentjs-source/code/verbose.cpp'
p177
(F1335793571.005798
(lp178
S'/Volumes/McGuire/Desktop/indentjs-source/code/verbose.cpp'
p179
aS'/Volumes/McGuire/Desktop/indentjs-source/code/bcpp.h'
p180
aS'/usr/include/string.h'
p181
aS'/usr/include/_types.h'
p182
aS'/usr/include/sys/_types.h'
p183
aS'/usr/include/sys/cdefs.h'
p184
aS'/usr/include/sys/_symbol_aliasing.h'
p185
aS'/usr/include/sys/_posix_availability.h'
p186
aS'/usr/include/machine/_types.h'
p187
aS'/usr/include/i386/_types.h'
p188
aS'/usr/include/Availability.h'
p189
aS'/usr/include/AvailabilityInternal.h'
p190
aS'/usr/include/strings.h'
p191
aS'/usr/include/sys/types.h'
p192
aS'/usr/include/sys/appleapiopts.h'
p193
aS'/usr/include/machine/types.h'
p194
aS'/usr/include/i386/types.h'
p195
aS'/usr/include/i386/_types.h'
p196
aS'/usr/include/machine/endian.h'
p197
aS'/usr/include/i386/endian.h'
p198
aS'/usr/include/sys/_endian.h'
p199
aS'/usr/include/libkern/_OSByteOrder.h'
p200
aS'/usr/include/libkern/i386/_OSByteOrder.h'
p201
aS'/usr/include/sys/_structs.h'
p202
aS'/Volumes/McGuire/Desktop/indentjs-source/code/config.h'
p203
aS'/usr/include/stdio.h'
p204
aS'/Volumes/McGuire/Desktop/indentjs-source/code/anyobj.h'
p205
aS'/Volumes/McGuire/Desktop/indentjs-source/code/baseq.h'
p206
aS'/Volumes/McGuire/Desktop/indentjs-source/code/stacklis.h'
p207
aS'/usr/lib/gcc/i686-apple-darwin11/4.2.1/include/stdarg.h'
p208
aS'/usr/include/unistd.h'
p209
aS'/usr/include/sys/unistd.h'
p210
aS'/usr/include/sys/select.h'
p211
aS'/usr/include/sys/_select.h'
p212
atp213
sS'/Volumes/McGuire/Desktop/indentjs-source/code/execsql.cpp'
p214
(F1335793570.896059
(lp215
S'/Volumes/McGuire/Desktop/indentjs-source/code/execsql.cpp'
p216
aS'/usr/include/ctype.h'
p217
aS'/usr/include/runetype.h'
p218
aS'/usr/include/_types.h'
p219
aS'/usr/include/sys/_types.h'
p220
aS'/usr/include/sys/cdefs.h'
p221
aS'/usr/include/sys/_symbol_aliasing.h'
p222
aS'/usr/include/sys/_posix_availability.h'
p223
aS'/usr/include/machine/_types.h'
p224
aS'/usr/include/i386/_types.h'
p225
aS'/usr/include/string.h'
p226
aS'/usr/include/Availability.h'
p227
aS'/usr/include/AvailabilityInternal.h'
p228
aS'/usr/include/strings.h'
p229
aS'/Volumes/McGuire/Desktop/indentjs-source/code/bcpp.h'
p230
aS'/usr/include/sys/types.h'
p231
aS'/usr/include/sys/appleapiopts.h'
p232
aS'/usr/include/machine/types.h'
p233
aS'/usr/include/i386/types.h'
p234
aS'/usr/include/i386/_types.h'
p235
aS'/usr/include/machine/endian.h'
p236
aS'/usr/include/i386/endian.h'
p237
aS'/usr/include/sys/_endian.h'
p238
aS'/usr/include/libkern/_OSByteOrder.h'
p239
aS'/usr/include/libkern/i386/_OSByteOrder.h'
p240
aS'/usr/include/sys/_structs.h'
p241
aS'/Volumes/McGuire/Desktop/indentjs-source/code/config.h'
p242
aS'/usr/include/stdio.h'
p243
aS'/Volumes/McGuire/Desktop/indentjs-source/code/anyobj.h'
p244
aS'/Volumes/McGuire/Desktop/indentjs-source/code/baseq.h'
p245
aS'/Volumes/McGuire/Desktop/indentjs-source/code/stacklis.h'
p246
aS'/Volumes/McGuire/Desktop/indentjs-source/code/cmdline.h'
p247
atp248
sS'/Volumes/McGuire/Desktop/indentjs-source/code/bcpp.cpp'
p249
(F1335794394.890352
(lp250
S'/Volumes/McGuire/Desktop/indentjs-source/code/bcpp.cpp'
p251
aS'/usr/include/stdlib.h'
p252
aS'/usr/include/Availability.h'
p253
aS'/usr/include/AvailabilityInternal.h'
p254
aS'/usr/include/_types.h'
p255
aS'/usr/include/sys/_types.h'
p256
aS'/usr/include/sys/cdefs.h'
p257
aS'/usr/include/sys/_symbol_aliasing.h'
p258
aS'/usr/include/sys/_posix_availability.h'
p259
aS'/usr/include/machine/_types.h'
p260
aS'/usr/include/i386/_types.h'
p261
aS'/usr/include/sys/wait.h'
p262
aS'/usr/include/sys/signal.h'
p263
aS'/usr/include/sys/appleapiopts.h'
p264
aS'/usr/include/machine/signal.h'
p265
aS'/usr/include/i386/signal.h'
p266
aS'/usr/include/i386/_structs.h'
p267
aS'/usr/include/sys/_structs.h'
p268
aS'/usr/include/machine/_structs.h'
p269
aS'/usr/include/mach/i386/_structs.h'
p270
aS'/usr/include/sys/resource.h'
p271
aS'/usr/include/machine/endian.h'
p272
aS'/usr/include/i386/endian.h'
p273
aS'/usr/include/sys/_endian.h'
p274
aS'/usr/include/libkern/_OSByteOrder.h'
p275
aS'/usr/include/libkern/i386/_OSByteOrder.h'
p276
aS'/usr/include/alloca.h'
p277
aS'/usr/include/machine/types.h'
p278
aS'/usr/include/i386/types.h'
p279
aS'/usr/include/i386/_types.h'
p280
aS'/usr/include/time.h'
p281
aS'/usr/include/_structs.h'
p282
aS'/usr/include/string.h'
p283
aS'/usr/include/strings.h'
p284
aS'/usr/include/ctype.h'
p285
aS'/usr/include/runetype.h'
p286
aS'/Volumes/McGuire/Desktop/indentjs-source/code/cmdline.h'
p287
aS'/Volumes/McGuire/Desktop/indentjs-source/code/config.h'
p288
aS'/usr/include/stdio.h'
p289
aS'/Volumes/McGuire/Desktop/indentjs-source/code/bcpp.h'
p290
aS'/usr/include/sys/types.h'
p291
aS'/Volumes/McGuire/Desktop/indentjs-source/code/anyobj.h'
p292
aS'/Volumes/McGuire/Desktop/indentjs-source/code/baseq.h'
p293
aS'/Volumes/McGuire/Desktop/indentjs-source/code/stacklis.h'
p294
aS'/usr/include/copyfile.h'
p295
aS'/usr/include/stdint.h'
p296
atp297
sS'/Volumes/McGuire/Desktop/indentjs-source/code/anyobj.cpp'
p298
(F1335793570.359525
(lp299
S'/Volumes/McGuire/Desktop/indentjs-source/code/anyobj.cpp'
p300
aS'/Volumes/McGuire/Desktop/indentjs-source/code/anyobj.h'
p301
atp302
sS'/Volumes/McGuire/Desktop/indentjs-source/code/html.cpp'
p303
(F1335793570.932337
(lp304
S'/Volumes/McGuire/Desktop/indentjs-source/code/html.cpp'
p305
aS'/Volumes/McGuire/Desktop/indentjs-source/code/bcpp.h'
p306
aS'/usr/include/string.h'
p307
aS'/usr/include/_types.h'
p308
aS'/usr/include/sys/_types.h'
p309
aS'/usr/include/sys/cdefs.h'
p310
aS'/usr/include/sys/_symbol_aliasing.h'
p311
aS'/usr/include/sys/_posix_availability.h'
p312
aS'/usr/include/machine/_types.h'
p313
aS'/usr/include/i386/_types.h'
p314
aS'/usr/include/Availability.h'
p315
aS'/usr/include/AvailabilityInternal.h'
p316
aS'/usr/include/strings.h'
p317
aS'/usr/include/sys/types.h'
p318
aS'/usr/include/sys/appleapiopts.h'
p319
aS'/usr/include/machine/types.h'
p320
aS'/usr/include/i386/types.h'
p321
aS'/usr/include/i386/_types.h'
p322
aS'/usr/include/machine/endian.h'
p323
aS'/usr/include/i386/endian.h'
p324
aS'/usr/include/sys/_endian.h'
p325
aS'/usr/include/libkern/_OSByteOrder.h'
p326
aS'/usr/include/libkern/i386/_OSByteOrder.h'
p327
aS'/usr/include/sys/_structs.h'
p328
aS'/Volumes/McGuire/Desktop/indentjs-source/code/config.h'
p329
aS'/usr/include/stdio.h'
p330
aS'/Volumes/McGuire/Desktop/indentjs-source/code/anyobj.h'
p331
aS'/Volumes/McGuire/Desktop/indentjs-source/code/baseq.h'
p332
aS'/Volumes/McGuire/Desktop/indentjs-source/code/stacklis.h'
p333
aS'/Volumes/McGuire/Desktop/indentjs-source/code/cmdline.h'
p334
aS'/usr/include/ctype.h'
p335
aS'/usr/include/runetype.h'
p336
atp337
sS'/Volumes/McGuire/Desktop/indentjs-source/code/strings.cpp'
p338
(F1335793570.967108
(lp339
S'/Volumes/McGuire/Desktop/indentjs-source/code/strings.cpp'
p340
aS'/usr/include/stdlib.h'
p341
aS'/usr/include/Availability.h'
p342
aS'/usr/include/AvailabilityInternal.h'
p343
aS'/usr/include/_types.h'
p344
aS'/usr/include/sys/_types.h'
p345
aS'/usr/include/sys/cdefs.h'
p346
aS'/usr/include/sys/_symbol_aliasing.h'
p347
aS'/usr/include/sys/_posix_availability.h'
p348
aS'/usr/include/machine/_types.h'
p349
aS'/usr/include/i386/_types.h'
p350
aS'/usr/include/sys/wait.h'
p351
aS'/usr/include/sys/signal.h'
p352
aS'/usr/include/sys/appleapiopts.h'
p353
aS'/usr/include/machine/signal.h'
p354
aS'/usr/include/i386/signal.h'
p355
aS'/usr/include/i386/_structs.h'
p356
aS'/usr/include/sys/_structs.h'
p357
aS'/usr/include/machine/_structs.h'
p358
aS'/usr/include/mach/i386/_structs.h'
p359
aS'/usr/include/sys/resource.h'
p360
aS'/usr/include/machine/endian.h'
p361
aS'/usr/include/i386/endian.h'
p362
aS'/usr/include/sys/_endian.h'
p363
aS'/usr/include/libkern/_OSByteOrder.h'
p364
aS'/usr/include/libkern/i386/_OSByteOrder.h'
p365
aS'/usr/include/alloca.h'
p366
aS'/usr/include/machine/types.h'
p367
aS'/usr/include/i386/types.h'
p368
aS'/usr/include/i386/_types.h'
p369
aS'/usr/include/ctype.h'
p370
aS'/usr/include/runetype.h'
p371
aS'/usr/include/string.h'
p372
aS'/usr/include/strings.h'
p373
aS'/Volumes/McGuire/Desktop/indentjs-source/code/bcpp.h'
p374
aS'/usr/include/sys/types.h'
p375
aS'/Volumes/McGuire/Desktop/indentjs-source/code/config.h'
p376
aS'/usr/include/stdio.h'
p377
aS'/Volumes/McGuire/Desktop/indentjs-source/code/anyobj.h'
p378
aS'/Volumes/McGuire/Desktop/indentjs-source/code/baseq.h'
p379
aS'/Volumes/McGuire/Desktop/indentjs-source/code/stacklis.h'
p380
atp381
sS'/Volumes/McGuire/Desktop/indentjs-source/code/tabs.cpp'
p382
(F1335793570.984126
(lp383
S'/Volumes/McGuire/Desktop/indentjs-source/code/tabs.cpp'
p384
aS'/usr/include/ctype.h'
p385
aS'/usr/include/runetype.h'
p386
aS'/usr/include/_types.h'
p387
aS'/usr/include/sys/_types.h'
p388
aS'/usr/include/sys/cdefs.h'
p389
aS'/usr/include/sys/_symbol_aliasing.h'
p390
aS'/usr/include/sys/_posix_availability.h'
p391
aS'/usr/include/machine/_types.h'
p392
aS'/usr/include/i386/_types.h'
p393
aS'/usr/include/string.h'
p394
aS'/usr/include/Availability.h'
p395
aS'/usr/include/AvailabilityInternal.h'
p396
aS'/usr/include/strings.h'
p397
aS'/Volumes/McGuire/Desktop/indentjs-source/code/bcpp.h'
p398
aS'/usr/include/sys/types.h'
p399
aS'/usr/include/sys/appleapiopts.h'
p400
aS'/usr/include/machine/types.h'
p401
aS'/usr/include/i386/types.h'
p402
aS'/usr/include/i386/_types.h'
p403
aS'/usr/include/machine/endian.h'
p404
aS'/usr/include/i386/endian.h'
p405
aS'/usr/include/sys/_endian.h'
p406
aS'/usr/include/libkern/_OSByteOrder.h'
p407
aS'/usr/include/libkern/i386/_OSByteOrder.h'
p408
aS'/usr/include/sys/_structs.h'
p409
aS'/Volumes/McGuire/Desktop/indentjs-source/code/config.h'
p410
aS'/usr/include/stdio.h'
p411
aS'/Volumes/McGuire/Desktop/indentjs-source/code/anyobj.h'
p412
aS'/Volumes/McGuire/Desktop/indentjs-source/code/baseq.h'
p413
aS'/Volumes/McGuire/Desktop/indentjs-source/code/stacklis.h'
p414
atp415
sS'/Volumes/McGuire/Desktop/indentjs-source/code/debug.cpp'
p416
(F1335793570.879148
(lp417
S'/Volumes/McGuire/Desktop/indentjs-source/code/debug.cpp'
p418
aS'/usr/include/stdlib.h'
p419
aS'/usr/include/Availability.h'
p420
aS'/usr/include/AvailabilityInternal.h'
p421
aS'/usr/include/_types.h'
p422
aS'/usr/include/sys/_types.h'
p423
aS'/usr/include/sys/cdefs.h'
p424
aS'/usr/include/sys/_symbol_aliasing.h'
p425
aS'/usr/include/sys/_posix_availability.h'
p426
aS'/usr/include/machine/_types.h'
p427
aS'/usr/include/i386/_types.h'
p428
aS'/usr/include/sys/wait.h'
p429
aS'/usr/include/sys/signal.h'
p430
aS'/usr/include/sys/appleapiopts.h'
p431
aS'/usr/include/machine/signal.h'
p432
aS'/usr/include/i386/signal.h'
p433
aS'/usr/include/i386/_structs.h'
p434
aS'/usr/include/sys/_structs.h'
p435
aS'/usr/include/machine/_structs.h'
p436
aS'/usr/include/mach/i386/_structs.h'
p437
aS'/usr/include/sys/resource.h'
p438
aS'/usr/include/machine/endian.h'
p439
aS'/usr/include/i386/endian.h'
p440
aS'/usr/include/sys/_endian.h'
p441
aS'/usr/include/libkern/_OSByteOrder.h'
p442
aS'/usr/include/libkern/i386/_OSByteOrder.h'
p443
aS'/usr/include/alloca.h'
p444
aS'/usr/include/machine/types.h'
p445
aS'/usr/include/i386/types.h'
p446
aS'/usr/include/i386/_types.h'
p447
aS'/usr/lib/gcc/i686-apple-darwin11/4.2.1/include/stdarg.h'
p448
aS'/Volumes/McGuire/Desktop/indentjs-source/code/bcpp.h'
p449
aS'/usr/include/string.h'
p450
aS'/usr/include/strings.h'
p451
aS'/usr/include/sys/types.h'
p452
aS'/Volumes/McGuire/Desktop/indentjs-source/code/config.h'
p453
aS'/usr/include/stdio.h'
p454
aS'/Volumes/McGuire/Desktop/indentjs-source/code/anyobj.h'
p455
aS'/Volumes/McGuire/Desktop/indentjs-source/code/baseq.h'
p456
aS'/Volumes/McGuire/Desktop/indentjs-source/code/stacklis.h'
p457
atp458
sS'/Volumes/McGuire/Desktop/indentjs-source/code/backup.cpp'
p459
(F1335793570.683308
(lp460
S'/Volumes/McGuire/Desktop/indentjs-source/code/backup.cpp'
p461
aS'/Volumes/McGuire/Desktop/indentjs-source/code/bcpp.h'
p462
aS'/usr/include/string.h'
p463
aS'/usr/include/_types.h'
p464
aS'/usr/include/sys/_types.h'
p465
aS'/usr/include/sys/cdefs.h'
p466
aS'/usr/include/sys/_symbol_aliasing.h'
p467
aS'/usr/include/sys/_posix_availability.h'
p468
aS'/usr/include/machine/_types.h'
p469
aS'/usr/include/i386/_types.h'
p470
aS'/usr/include/Availability.h'
p471
aS'/usr/include/AvailabilityInternal.h'
p472
aS'/usr/include/strings.h'
p473
aS'/usr/include/sys/types.h'
p474
aS'/usr/include/sys/appleapiopts.h'
p475
aS'/usr/include/machine/types.h'
p476
aS'/usr/include/i386/types.h'
p477
aS'/usr/include/i386/_types.h'
p478
aS'/usr/include/machine/endian.h'
p479
aS'/usr/include/i386/endian.h'
p480
aS'/usr/include/sys/_endian.h'
p481
aS'/usr/include/libkern/_OSByteOrder.h'
p482
aS'/usr/include/libkern/i386/_OSByteOrder.h'
p483
aS'/usr/include/sys/_structs.h'
p484
aS'/Volumes/McGuire/Desktop/indentjs-source/code/config.h'
p485
aS'/usr/include/stdio.h'
p486
aS'/Volumes/McGuire/Desktop/indentjs-source/code/anyobj.h'
p487
aS'/Volumes/McGuire/Desktop/indentjs-source/code/baseq.h'
p488
aS'/Volumes/McGuire/Desktop/indentjs-source/code/stacklis.h'
p489
atp490
sS'/Volumes/McGuire/Desktop/indentjs-source/code/baseq.cpp'
p491
(F1335793570.698021
(lp492
S'/Volumes/McGuire/Desktop/indentjs-source/code/baseq.cpp'
p493
aS'/Volumes/McGuire/Desktop/indentjs-source/code/baseq.h'
p494
aS'/Volumes/McGuire/Desktop/indentjs-source/code/anyobj.h'
p495
aS'/usr/include/stdio.h'
p496
aS'/usr/include/sys/cdefs.h'
p497
aS'/usr/include/sys/_symbol_aliasing.h'
p498
aS'/usr/include/sys/_posix_availability.h'
p499
aS'/usr/include/Availability.h'
p500
aS'/usr/include/AvailabilityInternal.h'
p501
aS'/usr/include/_types.h'
p502
aS'/usr/include/sys/_types.h'
p503
aS'/usr/include/machine/_types.h'
p504
aS'/usr/include/i386/_types.h'
p505
atp506
ssS'compilerOptions'
p507
(lp508
S'-O3'
p509
aS'-D_RELEASE'
p510
aS'-fno-signaling-nans'
p511
aS'-fno-trapping-math'
p512
aS'-fno-strict-aliasing'
p513
aS'-ffast-math'
p514
aS'-fno-math-errno'
p515
aS'-finline-limit=1100'
p516
aS'-s'
p517
aS'-D__cdecl='
p518
aS'-D__stdcall='
p519
aS'-D__fastcall='
p520
aS'-fasm-blocks'
p521
aS'-m32'
p522
aS'-mfpmath=sse'
p523
aS'-pipe'
p524
asS'usesProjectsList'
p525
(lp526
sS'linkerOptions'
p527
(lp528
S'-Wl,-w'
p529
ag522
ag523
aS'-Wl,-headerpad_max_install_names'
p530
aS'-Lbuild/'
p531
aS'-L/Applications/Xcode.app/Contents/Developer/Platforms/MacOSX.platform/Developer/SDKs/MacOSX10.7.sdk/usr/X11/lib/'
p532
aS'-L/usr/local/lib/'
p533
aS'-L/usr/lib/'
p534
aS'-L/Volumes/Volatile/G3D/g3dsvn/G3D9/build/lib/'
p535
aS'-Lbuild/'
p536
aS'-L/Applications/Xcode.app/Contents/Developer/Platforms/MacOSX.platform/Developer/SDKs/MacOSX10.7.sdk/usr/X11/lib/'
p537
aS'-L/usr/local/lib/'
p538
aS'-L/usr/lib/'
p539
aS'-L/Volumes/Volatile/G3D/g3dsvn/G3D9/build/lib/'
p540
asbssS'warnings'
p541
(dp542
sb.